target datalayout = "e-m:e-p270:32:32-p271:32:32-p272:64:64-i64:64-i128:128-f80:128-n8:16:32:64-S128"
target triple = "x86_64-unknown-linux-gnu"

%class.symbol = type { ptr }
%class.array_decl_plugin = type { %class.decl_plugin.base, %class.symbol, %class.symbol, %class.symbol, %class.symbol, %class.symbol, %class.symbol, %class.symbol, %class.symbol, %class.symbol, %class.symbol, %class.symbol, %class.symbol, %class.symbol, %class.symbol }
%class.decl_plugin.base = type <{ ptr, ptr, i32 }>
%class.decl_plugin = type <{ ptr, ptr, i32, [4 x i8] }>
%class.decl_info.base = type <{ i32, i32, %class.vector.39, i8 }>
%class.vector.39 = type { ptr }
%struct.func_decl_info = type <{ %class.decl_info.base, i16, [5 x i8] }>
%class.decl_info = type <{ i32, i32, %class.vector.39, i8, [7 x i8] }>

@.str.58 = private unnamed_addr constant [45 x i8] c"set difference takes precisely two arguments\00", align 1

; Function Attrs: mustprogress nounwind uwtable
define linkonce_odr hidden noundef zeroext i1 @_ZNK14func_decl_info9is_skolemEv(ptr noundef nonnull align 8 dereferenceable(19) %this) #5 comdat align 2 {
entry:
  %this.addr = alloca ptr, align 8
  store ptr %this, ptr %this.addr, align 8
  %this1 = load ptr, ptr %this.addr, align 8
  %m_skolem = getelementptr inbounds %struct.func_decl_info, ptr %this1, i32 0, i32 1
  %bf.load = load i16, ptr %m_skolem, align 1
  %bf.lshr = lshr i16 %bf.load, 8
  %bf.clear = and i16 %bf.lshr, 1
  %bf.cast = trunc i16 %bf.clear to i1
  ret i1 %bf.cast
}

; Function Attrs: mustprogress nounwind uwtable
define linkonce_odr hidden noundef zeroext i1 @_ZNK14func_decl_info13is_idempotentEv(ptr noundef nonnull align 8 dereferenceable(19) %this) #5 comdat align 2 {
entry:
  %this.addr = alloca ptr, align 8
  store ptr %this, ptr %this.addr, align 8
  %this1 = load ptr, ptr %this.addr, align 8
  %m_idempotent = getelementptr inbounds %struct.func_decl_info, ptr %this1, i32 0, i32 1
  %bf.load = load i16, ptr %m_idempotent, align 1
  %bf.lshr = lshr i16 %bf.load, 7
  %bf.clear = and i16 %bf.lshr, 1
  %bf.cast = trunc i16 %bf.clear to i1
  ret i1 %bf.cast
}

; Function Attrs: mustprogress nounwind uwtable
define linkonce_odr hidden noundef zeroext i1 @_ZNK14func_decl_info12is_injectiveEv(ptr noundef nonnull align 8 dereferenceable(19) %this) #5 comdat align 2 {
entry:
  %this.addr = alloca ptr, align 8
  store ptr %this, ptr %this.addr, align 8
  %this1 = load ptr, ptr %this.addr, align 8
  %m_injective = getelementptr inbounds %struct.func_decl_info, ptr %this1, i32 0, i32 1
  %bf.load = load i16, ptr %m_injective, align 1
  %bf.lshr = lshr i16 %bf.load, 6
  %bf.clear = and i16 %bf.lshr, 1
  %bf.cast = trunc i16 %bf.clear to i1
  ret i1 %bf.cast
}

; Function Attrs: mustprogress nounwind uwtable
define linkonce_odr hidden noundef zeroext i1 @_ZNK14func_decl_info11is_pairwiseEv(ptr noundef nonnull align 8 dereferenceable(19) %this) #5 comdat align 2 {
entry:
  %this.addr = alloca ptr, align 8
  store ptr %this, ptr %this.addr, align 8
  %this1 = load ptr, ptr %this.addr, align 8
  %m_pairwise = getelementptr inbounds %struct.func_decl_info, ptr %this1, i32 0, i32 1
  %bf.load = load i16, ptr %m_pairwise, align 1
  %bf.lshr = lshr i16 %bf.load, 5
  %bf.clear = and i16 %bf.lshr, 1
  %bf.cast = trunc i16 %bf.clear to i1
  ret i1 %bf.cast
}

; Function Attrs: mustprogress nounwind uwtable
define linkonce_odr hidden noundef zeroext i1 @_ZNK14func_decl_info12is_chainableEv(ptr noundef nonnull align 8 dereferenceable(19) %this) #5 comdat align 2 {
entry:
  %this.addr = alloca ptr, align 8
  store ptr %this, ptr %this.addr, align 8
  %this1 = load ptr, ptr %this.addr, align 8
  %m_chainable = getelementptr inbounds %struct.func_decl_info, ptr %this1, i32 0, i32 1
  %bf.load = load i16, ptr %m_chainable, align 1
  %bf.lshr = lshr i16 %bf.load, 4
  %bf.clear = and i16 %bf.lshr, 1
  %bf.cast = trunc i16 %bf.clear to i1
  ret i1 %bf.cast
}

; Function Attrs: mustprogress nounwind uwtable
define linkonce_odr hidden noundef zeroext i1 @_ZNK14func_decl_info14is_commutativeEv(ptr noundef nonnull align 8 dereferenceable(19) %this) #5 comdat align 2 {
entry:
  %this.addr = alloca ptr, align 8
  store ptr %this, ptr %this.addr, align 8
  %this1 = load ptr, ptr %this.addr, align 8
  %m_commutative = getelementptr inbounds %struct.func_decl_info, ptr %this1, i32 0, i32 1
  %bf.load = load i16, ptr %m_commutative, align 1
  %bf.lshr = lshr i16 %bf.load, 3
  %bf.clear = and i16 %bf.lshr, 1
  %bf.cast = trunc i16 %bf.clear to i1
  ret i1 %bf.cast
}

; Function Attrs: mustprogress nounwind uwtable
define linkonce_odr hidden noundef zeroext i1 @_ZNK14func_decl_info20is_right_associativeEv(ptr noundef nonnull align 8 dereferenceable(19) %this) #5 comdat align 2 {
entry:
  %this.addr = alloca ptr, align 8
  store ptr %this, ptr %this.addr, align 8
  %this1 = load ptr, ptr %this.addr, align 8
  %m_right_assoc = getelementptr inbounds %struct.func_decl_info, ptr %this1, i32 0, i32 1
  %bf.load = load i16, ptr %m_right_assoc, align 1
  %bf.lshr = lshr i16 %bf.load, 1
  %bf.clear = and i16 %bf.lshr, 1
  %bf.cast = trunc i16 %bf.clear to i1
  ret i1 %bf.cast
}

; Function Attrs: mustprogress nounwind uwtable
define linkonce_odr hidden noundef zeroext i1 @_ZNK14func_decl_info19is_left_associativeEv(ptr noundef nonnull align 8 dereferenceable(19) %this) #5 comdat align 2 {
entry:
  %this.addr = alloca ptr, align 8
  store ptr %this, ptr %this.addr, align 8
  %this1 = load ptr, ptr %this.addr, align 8
  %m_left_assoc = getelementptr inbounds %struct.func_decl_info, ptr %this1, i32 0, i32 1
  %bf.load = load i16, ptr %m_left_assoc, align 1
  %bf.clear = and i16 %bf.load, 1
  %bf.cast = trunc i16 %bf.clear to i1
  ret i1 %bf.cast
}

; Function Attrs: mustprogress nounwind uwtable
define linkonce_odr hidden noundef i32 @_ZNK9decl_info13get_family_idEv(ptr noundef nonnull align 8 dereferenceable(17) %this) #5 comdat align 2 {
entry:
  %this.addr = alloca ptr, align 8
  store ptr %this, ptr %this.addr, align 8
  %this1 = load ptr, ptr %this.addr, align 8
  %m_family_id = getelementptr inbounds %class.decl_info, ptr %this1, i32 0, i32 0
  %0 = load i32, ptr %m_family_id, align 8
  ret i32 %0
}

; Function Attrs: mustprogress uwtable
define linkonce_odr hidden noundef zeroext i1 @_ZNK14func_decl_info7is_nullEv(ptr noundef nonnull align 8 dereferenceable(19) %this) #4 comdat align 2 {
entry:
  %this.addr = alloca ptr, align 8
  store ptr %this, ptr %this.addr, align 8
  %this1 = load ptr, ptr %this.addr, align 8
  %call = call noundef i32 @_ZNK9decl_info13get_family_idEv(ptr noundef nonnull align 8 dereferenceable(17) %this1)
  %cmp = icmp eq i32 %call, -1
  br i1 %cmp, label %land.lhs.true, label %land.end

land.lhs.true:                                    ; preds = %entry
  %call2 = call noundef zeroext i1 @_ZNK14func_decl_info19is_left_associativeEv(ptr noundef nonnull align 8 dereferenceable(19) %this1)
  br i1 %call2, label %land.end, label %land.lhs.true3

land.lhs.true3:                                   ; preds = %land.lhs.true
  %call4 = call noundef zeroext i1 @_ZNK14func_decl_info20is_right_associativeEv(ptr noundef nonnull align 8 dereferenceable(19) %this1)
  br i1 %call4, label %land.end, label %land.lhs.true5

land.lhs.true5:                                   ; preds = %land.lhs.true3
  %call6 = call noundef zeroext i1 @_ZNK14func_decl_info14is_commutativeEv(ptr noundef nonnull align 8 dereferenceable(19) %this1)
  br i1 %call6, label %land.end, label %land.lhs.true7

land.lhs.true7:                                   ; preds = %land.lhs.true5
  %call8 = call noundef zeroext i1 @_ZNK14func_decl_info12is_chainableEv(ptr noundef nonnull align 8 dereferenceable(19) %this1)
  br i1 %call8, label %land.end, label %land.lhs.true9

land.lhs.true9:                                   ; preds = %land.lhs.true7
  %call10 = call noundef zeroext i1 @_ZNK14func_decl_info11is_pairwiseEv(ptr noundef nonnull align 8 dereferenceable(19) %this1)
  br i1 %call10, label %land.end, label %land.lhs.true11

land.lhs.true11:                                  ; preds = %land.lhs.true9
  %call12 = call noundef zeroext i1 @_ZNK14func_decl_info12is_injectiveEv(ptr noundef nonnull align 8 dereferenceable(19) %this1)
  br i1 %call12, label %land.end, label %land.lhs.true13

land.lhs.true13:                                  ; preds = %land.lhs.true11
  %call14 = call noundef zeroext i1 @_ZNK14func_decl_info13is_idempotentEv(ptr noundef nonnull align 8 dereferenceable(19) %this1)
  br i1 %call14, label %land.end, label %land.rhs

land.rhs:                                         ; preds = %land.lhs.true13
  %call15 = call noundef zeroext i1 @_ZNK14func_decl_info9is_skolemEv(ptr noundef nonnull align 8 dereferenceable(19) %this1)
  %lnot = xor i1 %call15, true
  br label %land.end

land.end:                                         ; preds = %land.rhs, %land.lhs.true13, %land.lhs.true11, %land.lhs.true9, %land.lhs.true7, %land.lhs.true5, %land.lhs.true3, %land.lhs.true, %entry
  %0 = phi i1 [ false, %land.lhs.true13 ], [ false, %land.lhs.true11 ], [ false, %land.lhs.true9 ], [ false, %land.lhs.true7 ], [ false, %land.lhs.true5 ], [ false, %land.lhs.true3 ], [ false, %land.lhs.true ], [ false, %entry ], [ %lnot, %land.rhs ]
  ret i1 %0
}

; Function Attrs: mustprogress uwtable
define linkonce_odr hidden noundef ptr @_ZN11ast_manager12mk_func_declERK6symboljPKP4sortS4_RK14func_decl_info(ptr noundef nonnull align 8 dereferenceable(976) %this, ptr noundef nonnull align 8 dereferenceable(8) %name, i32 noundef %arity, ptr noundef %domain, ptr noundef %range, ptr noundef nonnull align 8 dereferenceable(19) %info) #4 comdat align 2 {
entry:
  %retval = alloca ptr, align 8
  %this.addr = alloca ptr, align 8
  %name.addr = alloca ptr, align 8
  %arity.addr = alloca i32, align 4
  %domain.addr = alloca ptr, align 8
  %range.addr = alloca ptr, align 8
  %info.addr = alloca ptr, align 8
  store ptr %this, ptr %this.addr, align 8
  store ptr %name, ptr %name.addr, align 8
  store i32 %arity, ptr %arity.addr, align 4
  store ptr %domain, ptr %domain.addr, align 8
  store ptr %range, ptr %range.addr, align 8
  store ptr %info, ptr %info.addr, align 8
  %this1 = load ptr, ptr %this.addr, align 8
  %0 = load ptr, ptr %info.addr, align 8
  %call = call noundef zeroext i1 @_ZNK14func_decl_info7is_nullEv(ptr noundef nonnull align 8 dereferenceable(19) %0)
  br i1 %call, label %if.then, label %if.else

if.then:                                          ; preds = %entry
  %1 = load ptr, ptr %name.addr, align 8
  %2 = load i32, ptr %arity.addr, align 4
  %3 = load ptr, ptr %domain.addr, align 8
  %4 = load ptr, ptr %range.addr, align 8
  %call2 = call noundef ptr @_ZN11ast_manager12mk_func_declERK6symboljPKP4sortS4_P14func_decl_info(ptr noundef nonnull align 8 dereferenceable(976) %this1, ptr noundef nonnull align 8 dereferenceable(8) %1, i32 noundef %2, ptr noundef %3, ptr noundef %4, ptr noundef null)
  store ptr %call2, ptr %retval, align 8
  br label %return

if.else:                                          ; preds = %entry
  %5 = load ptr, ptr %name.addr, align 8
  %6 = load i32, ptr %arity.addr, align 4
  %7 = load ptr, ptr %domain.addr, align 8
  %8 = load ptr, ptr %range.addr, align 8
  %9 = load ptr, ptr %info.addr, align 8
  %call3 = call noundef ptr @_ZN11ast_manager12mk_func_declERK6symboljPKP4sortS4_P14func_decl_info(ptr noundef nonnull align 8 dereferenceable(976) %this1, ptr noundef nonnull align 8 dereferenceable(8) %5, i32 noundef %6, ptr noundef %7, ptr noundef %8, ptr noundef %9)
  store ptr %call3, ptr %retval, align 8
  br label %return

return:                                           ; preds = %if.else, %if.then
  %10 = load ptr, ptr %retval, align 8
  ret ptr %10
}

; Function Attrs: mustprogress uwtable
define hidden noundef ptr @_ZN17array_decl_plugin17mk_set_differenceEjPKP4sort(ptr noundef nonnull align 8 dereferenceable(136) %this, i32 noundef %arity, ptr noundef %domain) #4 align 2 personality ptr @__gxx_personality_v0 {
entry:
  %retval = alloca ptr, align 8
  %this.addr = alloca ptr, align 8
  %arity.addr = alloca i32, align 4
  %domain.addr = alloca ptr, align 8
  %ref.tmp = alloca %struct.func_decl_info, align 8
  %exn.slot = alloca ptr, align 8
  %ehselector.slot = alloca i32, align 4
  store ptr %this, ptr %this.addr, align 8
  store i32 %arity, ptr %arity.addr, align 4
  store ptr %domain, ptr %domain.addr, align 8
  %this1 = load ptr, ptr %this.addr, align 8
  %0 = load i32, ptr %arity.addr, align 4
  %cmp = icmp ne i32 %0, 2
  br i1 %cmp, label %if.then, label %if.end

if.then:                                          ; preds = %entry
  %m_manager = getelementptr inbounds %class.decl_plugin, ptr %this1, i32 0, i32 1
  %1 = load ptr, ptr %m_manager, align 8
  call void @_ZN11ast_manager15raise_exceptionEPKc(ptr noundef nonnull align 8 dereferenceable(976) %1, ptr noundef @.str.58) #13
  unreachable

if.end:                                           ; preds = %entry
  %2 = load i32, ptr %arity.addr, align 4
  %3 = load ptr, ptr %domain.addr, align 8
  %call = call noundef zeroext i1 @_ZN17array_decl_plugin19check_set_argumentsEjPKP4sort(ptr noundef nonnull align 8 dereferenceable(136) %this1, i32 noundef %2, ptr noundef %3)
  br i1 %call, label %if.end3, label %if.then2

if.then2:                                         ; preds = %if.end
  store ptr null, ptr %retval, align 8
  br label %return

if.end3:                                          ; preds = %if.end
  %m_manager4 = getelementptr inbounds %class.decl_plugin, ptr %this1, i32 0, i32 1
  %4 = load ptr, ptr %m_manager4, align 8
  %m_set_difference_sym = getelementptr inbounds %class.array_decl_plugin, ptr %this1, i32 0, i32 8
  %5 = load i32, ptr %arity.addr, align 4
  %6 = load ptr, ptr %domain.addr, align 8
  %7 = load ptr, ptr %domain.addr, align 8
  %arrayidx = getelementptr inbounds ptr, ptr %7, i64 0
  %8 = load ptr, ptr %arrayidx, align 8
  %m_family_id = getelementptr inbounds %class.decl_plugin, ptr %this1, i32 0, i32 2
  %9 = load i32, ptr %m_family_id, align 8
  call void @_ZN14func_decl_infoC1EiijPK9parameter(ptr noundef nonnull align 8 dereferenceable(19) %ref.tmp, i32 noundef %9, i32 noundef 8, i32 noundef 0, ptr noundef null)
  %call5 = invoke noundef ptr @_ZN11ast_manager12mk_func_declERK6symboljPKP4sortS4_RK14func_decl_info(ptr noundef nonnull align 8 dereferenceable(976) %4, ptr noundef nonnull align 8 dereferenceable(8) %m_set_difference_sym, i32 noundef %5, ptr noundef %6, ptr noundef %8, ptr noundef nonnull align 8 dereferenceable(19) %ref.tmp)
          to label %invoke.cont unwind label %lpad

invoke.cont:                                      ; preds = %if.end3
  store ptr %call5, ptr %retval, align 8
  call void @_ZN14func_decl_infoD2Ev(ptr noundef nonnull align 8 dereferenceable(19) %ref.tmp) #3
  br label %return

lpad:                                             ; preds = %if.end3
  %10 = landingpad { ptr, i32 }
          cleanup
  %11 = extractvalue { ptr, i32 } %10, 0
  store ptr %11, ptr %exn.slot, align 8
  %12 = extractvalue { ptr, i32 } %10, 1
  store i32 %12, ptr %ehselector.slot, align 4
  call void @_ZN14func_decl_infoD2Ev(ptr noundef nonnull align 8 dereferenceable(19) %ref.tmp) #3
  br label %eh.resume

return:                                           ; preds = %invoke.cont, %if.then2
  %13 = load ptr, ptr %retval, align 8
  ret ptr %13

eh.resume:                                        ; preds = %lpad
  %exn = load ptr, ptr %exn.slot, align 8
  %sel = load i32, ptr %ehselector.slot, align 4
  %lpad.val = insertvalue { ptr, i32 } poison, ptr %exn, 0
  %lpad.val6 = insertvalue { ptr, i32 } %lpad.val, i32 %sel, 1
  resume { ptr, i32 } %lpad.val6
}