; Function Attrs: mustprogress uwtable
define hidden noundef ptr @_ZN17array_decl_plugin17mk_set_differenceEjPKP4sort(ptr noundef nonnull align 8 dereferenceable(136) %this, i32 noundef %arity, ptr noundef %domain) local_unnamed_addr #3 align 2 personality ptr @__gxx_personality_v0 {
entry:
  %ref.tmp = alloca %struct.func_decl_info, align 8
  %cmp.not = icmp eq i32 %arity, 2
  br i1 %cmp.not, label %if.end, label %if.then

if.then:                                          ; preds = %entry
  %m_manager = getelementptr inbounds i8, ptr %this, i64 8
  %0 = load ptr, ptr %m_manager, align 8
  tail call void @_ZN11ast_manager15raise_exceptionEPKc(ptr noundef nonnull align 8 dereferenceable(976) %0, ptr noundef nonnull @.str.58) #18
  unreachable

if.end:                                           ; preds = %entry
  %call = tail call noundef zeroext i1 @_ZN17array_decl_plugin19check_set_argumentsEjPKP4sort(ptr noundef nonnull align 8 dereferenceable(136) %this, i32 noundef 2, ptr noundef %domain)
  %m_manager4 = getelementptr inbounds i8, ptr %this, i64 8
  %1 = load ptr, ptr %m_manager4, align 8
  %m_set_difference_sym = getelementptr inbounds i8, ptr %this, i64 80
  %2 = load ptr, ptr %domain, align 8
  %m_family_id = getelementptr inbounds i8, ptr %this, i64 16
  %3 = load i32, ptr %m_family_id, align 8
  call void @_ZN14func_decl_infoC1EiijPK9parameter(ptr noundef nonnull align 8 dereferenceable(19) %ref.tmp, i32 noundef %3, i32 noundef 8, i32 noundef 0, ptr noundef null)
  %4 = load i32, ptr %ref.tmp, align 8
  %cmp.i.i = icmp eq i32 %4, -1
  br i1 %cmp.i.i, label %land.lhs.true.i.i, label %if.else.i

land.lhs.true.i.i:                                ; preds = %if.end
  %m_left_assoc.i.i.i = getelementptr inbounds i8, ptr %ref.tmp, i64 17
  %bf.load.i.i.i = load i16, ptr %m_left_assoc.i.i.i, align 1
  %5 = and i16 %bf.load.i.i.i, 507
  %or.cond.i = icmp eq i16 %5, 0
  br i1 %or.cond.i, label %if.then.i, label %if.else.i

if.then.i:                                        ; preds = %land.lhs.true.i.i
  %call2.i5 = invoke noundef ptr @_ZN11ast_manager12mk_func_declERK6symboljPKP4sortS4_P14func_decl_info(ptr noundef nonnull align 8 dereferenceable(976) %1, ptr noundef nonnull align 8 dereferenceable(8) %m_set_difference_sym, i32 noundef 2, ptr noundef nonnull %domain, ptr noundef %2, ptr noundef null)
          to label %invoke.cont unwind label %lpad

if.else.i:                                        ; preds = %land.lhs.true.i.i, %if.end
  %call3.i6 = invoke noundef ptr @_ZN11ast_manager12mk_func_declERK6symboljPKP4sortS4_P14func_decl_info(ptr noundef nonnull align 8 dereferenceable(976) %1, ptr noundef nonnull align 8 dereferenceable(8) %m_set_difference_sym, i32 noundef 2, ptr noundef nonnull %domain, ptr noundef %2, ptr noundef nonnull %ref.tmp)
          to label %invoke.cont unwind label %lpad

invoke.cont:                                      ; preds = %if.then.i, %if.else.i
  %retval.0.i = phi ptr [ %call2.i5, %if.then.i ], [ %call3.i6, %if.else.i ]
  %m_parameters.i.i = getelementptr inbounds i8, ptr %ref.tmp, i64 8
  %6 = load ptr, ptr %m_parameters.i.i, align 8
  %tobool.not.i.i.i.i = icmp eq ptr %6, null
  br i1 %tobool.not.i.i.i.i, label %_ZN14func_decl_infoD2Ev.exit, label %_ZNK6vectorI9parameterLb1EjE4sizeEv.exit.i.i.i.i.i

_ZNK6vectorI9parameterLb1EjE4sizeEv.exit.i.i.i.i.i: ; preds = %invoke.cont
  %arrayidx.i.i.i.i.i.i = getelementptr inbounds i8, ptr %6, i64 -4
  %7 = load i32, ptr %arrayidx.i.i.i.i.i.i, align 4
  %cmp.not4.i.i.i.i.i.i.i.i = icmp eq i32 %7, 0
  br i1 %cmp.not4.i.i.i.i.i.i.i.i, label %_ZN6vectorI9parameterLb1EjE16destroy_elementsEv.exit.i.i.i.i, label %for.body.i.i.i.i.i.i.i.i

for.body.i.i.i.i.i.i.i.i:                         ; preds = %_ZNK6vectorI9parameterLb1EjE4sizeEv.exit.i.i.i.i.i, %for.body.i.i.i.i.i.i.i.i
  %__count.addr.06.i.i.i.i.i.i.i.i = phi i32 [ %dec.i.i.i.i.i.i.i.i, %for.body.i.i.i.i.i.i.i.i ], [ %7, %_ZNK6vectorI9parameterLb1EjE4sizeEv.exit.i.i.i.i.i ]
  %__first.addr.05.i.i.i.i.i.i.i.i = phi ptr [ %incdec.ptr.i.i.i.i.i.i.i.i, %for.body.i.i.i.i.i.i.i.i ], [ %6, %_ZNK6vectorI9parameterLb1EjE4sizeEv.exit.i.i.i.i.i ]
  call void @_ZN9parameterD1Ev(ptr noundef nonnull align 8 dereferenceable(16) %__first.addr.05.i.i.i.i.i.i.i.i) #19
  %incdec.ptr.i.i.i.i.i.i.i.i = getelementptr inbounds i8, ptr %__first.addr.05.i.i.i.i.i.i.i.i, i64 16
  %dec.i.i.i.i.i.i.i.i = add i32 %__count.addr.06.i.i.i.i.i.i.i.i, -1
  %cmp.not.i.i.i.i.i.i.i.i = icmp eq i32 %dec.i.i.i.i.i.i.i.i, 0
  br i1 %cmp.not.i.i.i.i.i.i.i.i, label %_ZN6vectorI9parameterLb1EjE16destroy_elementsEv.exit.loopexit.i.i.i.i, label %for.body.i.i.i.i.i.i.i.i, !llvm.loop !6

_ZN6vectorI9parameterLb1EjE16destroy_elementsEv.exit.loopexit.i.i.i.i: ; preds = %for.body.i.i.i.i.i.i.i.i
  %.pre.i.i.i.i = load ptr, ptr %m_parameters.i.i, align 8
  br label %_ZN6vectorI9parameterLb1EjE16destroy_elementsEv.exit.i.i.i.i

_ZN6vectorI9parameterLb1EjE16destroy_elementsEv.exit.i.i.i.i: ; preds = %_ZN6vectorI9parameterLb1EjE16destroy_elementsEv.exit.loopexit.i.i.i.i, %_ZNK6vectorI9parameterLb1EjE4sizeEv.exit.i.i.i.i.i
  %8 = phi ptr [ %.pre.i.i.i.i, %_ZN6vectorI9parameterLb1EjE16destroy_elementsEv.exit.loopexit.i.i.i.i ], [ %6, %_ZNK6vectorI9parameterLb1EjE4sizeEv.exit.i.i.i.i.i ]
  %add.ptr.i.i.i.i.i = getelementptr inbounds i8, ptr %8, i64 -8
  invoke void @_ZN6memory10deallocateEPv(ptr noundef nonnull %add.ptr.i.i.i.i.i)
          to label %_ZN14func_decl_infoD2Ev.exit unwind label %terminate.lpad.i.i.i

terminate.lpad.i.i.i:                             ; preds = %_ZN6vectorI9parameterLb1EjE16destroy_elementsEv.exit.i.i.i.i
  %9 = landingpad { ptr, i32 }
          catch ptr null
  %10 = extractvalue { ptr, i32 } %9, 0
  call void @__clang_call_terminate(ptr %10) #20
  unreachable

_ZN14func_decl_infoD2Ev.exit:                     ; preds = %invoke.cont, %_ZN6vectorI9parameterLb1EjE16destroy_elementsEv.exit.i.i.i.i
  ret ptr %retval.0.i

lpad:                                             ; preds = %if.else.i, %if.then.i
  %11 = landingpad { ptr, i32 }
          cleanup
  call void @_ZN14func_decl_infoD2Ev(ptr noundef nonnull align 8 dereferenceable(19) %ref.tmp) #19
  resume { ptr, i32 } %11
}